---
triple:          'arm64-apple-darwin'
binary-path:     "/Users/gsh/Algorithms/DP/output/P_1156_USACO_01_OPEN_垃圾陷阱"
relocations:
  - { offset: 0x32EC5, size: 0x8, addend: 0x0, symName: __ZStL8__ioinit, symObjAddr: 0xF3224, symBinAddr: 0x10000C000, symSize: 0x0 }
  - { offset: 0x33B59, size: 0x8, addend: 0x0, symName: __GLOBAL__sub_I_P_1156_USACO_01_OPEN_____________.cpp, symObjAddr: 0x3548, symBinAddr: 0x1000039F4, symSize: 0x14 }
  - { offset: 0x33B71, size: 0x8, addend: 0x0, symName: __Z41__static_initialization_and_destruction_0v, symObjAddr: 0x350C, symBinAddr: 0x1000039B8, symSize: 0x3C }
  - { offset: 0x33B89, size: 0x8, addend: 0x0, symName: __ZSt9__advanceIP3objlEvRT_T0_St26random_access_iterator_tag, symObjAddr: 0x322C, symBinAddr: 0x100003974, symSize: 0x44 }
  - { offset: 0x33CBD, size: 0x8, addend: 0x0, symName: __ZN9__gnu_cxx5__ops14_Iter_comp_valIPFbR3objS3_EEclINS_17__normal_iteratorIPS2_St6vectorIS2_SaIS2_EEEES2_EEbT_RT0_, symObjAddr: 0x31FC, symBinAddr: 0x100003944, symSize: 0x30 }
  - { offset: 0x33D35, size: 0x8, addend: 0x0, symName: __ZSt9__fill_a1IP3objS0_EvT_S2_RKT0_, symObjAddr: 0x3190, symBinAddr: 0x1000038D8, symSize: 0x6C }
  - { offset: 0x33DF7, size: 0x8, addend: 0x0, symName: __ZSt23__copy_move_backward_a2ILb1EP3objS1_ET1_T0_S3_S2_, symObjAddr: 0x2FFC, symBinAddr: 0x100003744, symSize: 0x194 }
  - { offset: 0x33FFE, size: 0x8, addend: 0x0, symName: __ZSt11__push_heapIN9__gnu_cxx17__normal_iteratorIP3objSt6vectorIS2_SaIS2_EEEElS2_NS0_5__ops14_Iter_comp_valIPFbRS2_SA_EEEEvT_T0_SF_T1_RT2_, symObjAddr: 0x2E20, symBinAddr: 0x100003568, symSize: 0x1DC }
  - { offset: 0x342E0, size: 0x8, addend: 0x0, symName: __ZNSt15__new_allocatorIxE8allocateEmPKv, symObjAddr: 0x2DA4, symBinAddr: 0x1000034EC, symSize: 0x7C }
  - { offset: 0x34352, size: 0x8, addend: 0x0, symName: __ZSt12__niter_wrapIN9__gnu_cxx17__normal_iteratorIP3objSt6vectorIS2_SaIS2_EEEES3_ET_S8_T0_, symObjAddr: 0x2D2C, symBinAddr: 0x100003474, symSize: 0x78 }
  - { offset: 0x344CF, size: 0x8, addend: 0x0, symName: __ZSt4swapI3objENSt9enable_ifIXsrSt6__and_IJSt6__not_ISt15__is_tuple_likeIT_EESt21is_move_constructibleIS5_ESt18is_move_assignableIS5_EEE5valueEvE4typeERS5_SF_, symObjAddr: 0x2CAC, symBinAddr: 0x1000033F4, symSize: 0x80 }
  - { offset: 0x34587, size: 0x8, addend: 0x0, symName: __ZSt13__adjust_heapIN9__gnu_cxx17__normal_iteratorIP3objSt6vectorIS2_SaIS2_EEEElS2_NS0_5__ops15_Iter_comp_iterIPFbRS2_SA_EEEEvT_T0_SF_T1_T2_, symObjAddr: 0x29B8, symBinAddr: 0x100003100, symSize: 0x2F4 }
  - { offset: 0x3495C, size: 0x8, addend: 0x0, symName: __ZN9__gnu_cxx5__ops14_Iter_comp_valIPFbR3objS3_EEC1EONS0_15_Iter_comp_iterIS5_EE, symObjAddr: 0x2988, symBinAddr: 0x1000030D0, symSize: 0x30 }
  - { offset: 0x34A12, size: 0x8, addend: 0x0, symName: __ZSt12construct_atI3objJEQaant20is_unbounded_array_vIT_ErqXgsnwcvPvLi0E_S1_pispcl7declvalIT0_EEEEEPS1_S4_DpOS3_, symObjAddr: 0x2924, symBinAddr: 0x10000306C, symSize: 0x64 }
  - { offset: 0x34A66, size: 0x8, addend: 0x0, symName: __ZNSt15__new_allocatorI3objE8allocateEmPKv, symObjAddr: 0x2894, symBinAddr: 0x100002FDC, symSize: 0x90 }
  - { offset: 0x34AD8, size: 0x8, addend: 0x0, symName: __ZSt12construct_atIxJRKxEQaant20is_unbounded_array_vIT_ErqXgsnwcvPvLi0E_S2_pispcl7declvalIT0_EEEEEPS2_S5_DpOS4_, symObjAddr: 0x2824, symBinAddr: 0x100002F6C, symSize: 0x70 }
  - { offset: 0x34B84, size: 0x8, addend: 0x0, symName: __ZNSt15__new_allocatorIxE10deallocateEPxm, symObjAddr: 0x27F4, symBinAddr: 0x100002F3C, symSize: 0x30 }
  - { offset: 0x34BF1, size: 0x8, addend: 0x0, symName: __ZN9__gnu_cxx5__ops14_Val_comp_iterIPFbR3objS3_EEclIS2_NS_17__normal_iteratorIPS2_St6vectorIS2_SaIS2_EEEEEEbRT_T0_, symObjAddr: 0x27C0, symBinAddr: 0x100002F08, symSize: 0x34 }
  - { offset: 0x34C94, size: 0x8, addend: 0x0, symName: __ZN9__gnu_cxx5__ops14_Val_comp_iterIPFbR3objS3_EEC1EONS0_15_Iter_comp_iterIS5_EE, symObjAddr: 0x2790, symBinAddr: 0x100002ED8, symSize: 0x30 }
  - { offset: 0x34D5C, size: 0x8, addend: 0x0, symName: __ZSt12__miter_baseIN9__gnu_cxx17__normal_iteratorIP3objSt6vectorIS2_SaIS2_EEEEET_S8_, symObjAddr: 0x277C, symBinAddr: 0x100002EC4, symSize: 0x14 }
  - { offset: 0x34D8F, size: 0x8, addend: 0x0, symName: __ZSt9iter_swapIN9__gnu_cxx17__normal_iteratorIP3objSt6vectorIS2_SaIS2_EEEES7_EvT_T0_, symObjAddr: 0x2754, symBinAddr: 0x100002E9C, symSize: 0x28 }
  - { offset: 0x34E30, size: 0x8, addend: 0x0, symName: __ZSt10__pop_heapIN9__gnu_cxx17__normal_iteratorIP3objSt6vectorIS2_SaIS2_EEEENS0_5__ops15_Iter_comp_iterIPFbRS2_SA_EEEEvT_SE_SE_RT0_, symObjAddr: 0x2678, symBinAddr: 0x100002DC0, symSize: 0xDC }
  - { offset: 0x35005, size: 0x8, addend: 0x0, symName: __ZSt11__make_heapIN9__gnu_cxx17__normal_iteratorIP3objSt6vectorIS2_SaIS2_EEEENS0_5__ops15_Iter_comp_iterIPFbRS2_SA_EEEEvT_SE_RT0_, symObjAddr: 0x2504, symBinAddr: 0x100002C4C, symSize: 0x174 }
  - { offset: 0x352A6, size: 0x8, addend: 0x0, symName: __ZNSt19_UninitDestroyGuardIP3objvE7releaseEv, symObjAddr: 0x24E8, symBinAddr: 0x100002C30, symSize: 0x1C }
  - { offset: 0x352CC, size: 0x8, addend: 0x0, symName: __ZSt10_ConstructI3objJEEvPT_DpOT0_, symObjAddr: 0x247C, symBinAddr: 0x100002BC4, symSize: 0x6C }
  - { offset: 0x35343, size: 0x8, addend: 0x0, symName: __ZNSt19_UninitDestroyGuardIP3objvED1Ev, symObjAddr: 0x2424, symBinAddr: 0x100002B6C, symSize: 0x58 }
  - { offset: 0x35369, size: 0x8, addend: 0x0, symName: __ZNSt15__new_allocatorI3objE10deallocateEPS0_m, symObjAddr: 0x23E8, symBinAddr: 0x100002B30, symSize: 0x3C }
  - { offset: 0x353D6, size: 0x8, addend: 0x0, symName: __ZNSt19_UninitDestroyGuardIPxvE7releaseEv, symObjAddr: 0x23CC, symBinAddr: 0x100002B14, symSize: 0x1C }
  - { offset: 0x353FC, size: 0x8, addend: 0x0, symName: __ZSt10_ConstructIxJRKxEEvPT_DpOT0_, symObjAddr: 0x2344, symBinAddr: 0x100002A8C, symSize: 0x88 }
  - { offset: 0x354C9, size: 0x8, addend: 0x0, symName: __ZNSt19_UninitDestroyGuardIPxvED1Ev, symObjAddr: 0x22EC, symBinAddr: 0x100002A34, symSize: 0x58 }
  - { offset: 0x3553F, size: 0x8, addend: 0x0, symName: __ZSt25__unguarded_linear_insertIN9__gnu_cxx17__normal_iteratorIP3objSt6vectorIS2_SaIS2_EEEENS0_5__ops14_Val_comp_iterIPFbRS2_SA_EEEEvT_T0_, symObjAddr: 0x221C, symBinAddr: 0x100002964, symSize: 0xD0 }
  - { offset: 0x356DD, size: 0x8, addend: 0x0, symName: __ZN9__gnu_cxx5__ops15__val_comp_iterIPFbR3objS3_EEENS0_14_Val_comp_iterIT_EENS0_15_Iter_comp_iterIS7_EE, symObjAddr: 0x21F8, symBinAddr: 0x100002940, symSize: 0x24 }
  - { offset: 0x357B2, size: 0x8, addend: 0x0, symName: __ZN9__gnu_cxx5__ops15_Iter_comp_iterIPFbR3objS3_EEclINS_17__normal_iteratorIPS2_St6vectorIS2_SaIS2_EEEESD_EEbT_T0_, symObjAddr: 0x21C8, symBinAddr: 0x100002910, symSize: 0x30 }
  - { offset: 0x35860, size: 0x8, addend: 0x0, symName: __ZSt21__unguarded_partitionIN9__gnu_cxx17__normal_iteratorIP3objSt6vectorIS2_SaIS2_EEEENS0_5__ops15_Iter_comp_iterIPFbRS2_SA_EEEET_SE_SE_SE_T0_, symObjAddr: 0x20C8, symBinAddr: 0x100002810, symSize: 0x100 }
  - { offset: 0x359C2, size: 0x8, addend: 0x0, symName: __ZSt22__move_median_to_firstIN9__gnu_cxx17__normal_iteratorIP3objSt6vectorIS2_SaIS2_EEEENS0_5__ops15_Iter_comp_iterIPFbRS2_SA_EEEEvT_SE_SE_SE_T0_, symObjAddr: 0x1FB8, symBinAddr: 0x100002700, symSize: 0x110 }
  - { offset: 0x35A61, size: 0x8, addend: 0x0, symName: __ZSt11__sort_heapIN9__gnu_cxx17__normal_iteratorIP3objSt6vectorIS2_SaIS2_EEEENS0_5__ops15_Iter_comp_iterIPFbRS2_SA_EEEEvT_SE_RT0_, symObjAddr: 0x1F20, symBinAddr: 0x100002668, symSize: 0x98 }
  - { offset: 0x35B4F, size: 0x8, addend: 0x0, symName: __ZSt13__heap_selectIN9__gnu_cxx17__normal_iteratorIP3objSt6vectorIS2_SaIS2_EEEENS0_5__ops15_Iter_comp_iterIPFbRS2_SA_EEEEvT_SE_SE_T0_, symObjAddr: 0x1E50, symBinAddr: 0x100002598, symSize: 0xD0 }
  - { offset: 0x35CBF, size: 0x8, addend: 0x0, symName: __ZNKSt8__detail10_Synth3wayclIP3objS3_EEDaRKT_RKT0_QrqXltfL0p_fL0p0_RNS_18__boolean_testableEXltfL0p0_fL0p_RNS_18__boolean_testableEE, symObjAddr: 0x1DF4, symBinAddr: 0x10000253C, symSize: 0x5C }
  - { offset: 0x35D19, size: 0x8, addend: 0x0, symName: __ZNSt27__uninitialized_default_n_1ILb1EE18__uninit_default_nIP3objmEET_S4_T0_, symObjAddr: 0x1CE0, symBinAddr: 0x100002428, symSize: 0x114 }
  - { offset: 0x35E87, size: 0x8, addend: 0x0, symName: __ZNSt27__uninitialized_default_n_1ILb0EE18__uninit_default_nIP3objmEET_S4_T0_, symObjAddr: 0x1C64, symBinAddr: 0x1000023AC, symSize: 0x7C }
  - { offset: 0x35F34, size: 0x8, addend: 0x0, symName: __ZNSt19_UninitDestroyGuardIP3objvEC1ERS1_, symObjAddr: 0x1C30, symBinAddr: 0x100002378, symSize: 0x34 }
  - { offset: 0x35FB3, size: 0x8, addend: 0x0, symName: __ZSt10destroy_atIxEvPT_, symObjAddr: 0x1C1C, symBinAddr: 0x100002364, symSize: 0x14 }
  - { offset: 0x36003, size: 0x8, addend: 0x0, symName: __ZSt20uninitialized_fill_nIPxmxET_S1_T0_RKT1_, symObjAddr: 0x1BF0, symBinAddr: 0x100002338, symSize: 0x2C }
  - { offset: 0x3606A, size: 0x8, addend: 0x0, symName: __ZSt18__do_uninit_fill_nIPxmxET_S1_T0_RKT1_, symObjAddr: 0x1B60, symBinAddr: 0x1000022A8, symSize: 0x90 }
  - { offset: 0x3614C, size: 0x8, addend: 0x0, symName: __ZNSt19_UninitDestroyGuardIPxvEC1ERS0_, symObjAddr: 0x1B2C, symBinAddr: 0x100002274, symSize: 0x34 }
  - { offset: 0x361AD, size: 0x8, addend: 0x0, symName: __ZNSt12_Vector_baseIxSaIxEE11_M_allocateEm, symObjAddr: 0x1A68, symBinAddr: 0x1000021B0, symSize: 0xC4 }
  - { offset: 0x36275, size: 0x8, addend: 0x0, symName: __ZNSt12_Vector_baseIxSaIxEE17_Vector_impl_dataC2Ev, symObjAddr: 0x1A3C, symBinAddr: 0x100002184, symSize: 0x2C }
  - { offset: 0x362B2, size: 0x8, addend: 0x0, symName: __ZSt26__unguarded_insertion_sortIN9__gnu_cxx17__normal_iteratorIP3objSt6vectorIS2_SaIS2_EEEENS0_5__ops15_Iter_comp_iterIPFbRS2_SA_EEEEvT_SE_T0_, symObjAddr: 0x19A8, symBinAddr: 0x1000020F0, symSize: 0x94 }
  - { offset: 0x363C4, size: 0x8, addend: 0x0, symName: __ZSt16__insertion_sortIN9__gnu_cxx17__normal_iteratorIP3objSt6vectorIS2_SaIS2_EEEENS0_5__ops15_Iter_comp_iterIPFbRS2_SA_EEEEvT_SE_T0_, symObjAddr: 0x1768, symBinAddr: 0x100001EB0, symSize: 0x240 }
  - { offset: 0x36813, size: 0x8, addend: 0x0, symName: __ZSt27__unguarded_partition_pivotIN9__gnu_cxx17__normal_iteratorIP3objSt6vectorIS2_SaIS2_EEEENS0_5__ops15_Iter_comp_iterIPFbRS2_SA_EEEET_SE_SE_T0_, symObjAddr: 0x15FC, symBinAddr: 0x100001D44, symSize: 0x16C }
  - { offset: 0x36A39, size: 0x8, addend: 0x0, symName: __ZSt14__partial_sortIN9__gnu_cxx17__normal_iteratorIP3objSt6vectorIS2_SaIS2_EEEENS0_5__ops15_Iter_comp_iterIPFbRS2_SA_EEEEvT_SE_SE_T0_, symObjAddr: 0x15B0, symBinAddr: 0x100001CF8, symSize: 0x4C }
  - { offset: 0x36AA8, size: 0x8, addend: 0x0, symName: __ZSt10destroy_atI3objEvPT_, symObjAddr: 0x159C, symBinAddr: 0x100001CE4, symSize: 0x14 }
  - { offset: 0x36AF8, size: 0x8, addend: 0x0, symName: __ZSt25__uninitialized_default_nIP3objmET_S2_T0_, symObjAddr: 0x154C, symBinAddr: 0x100001C94, symSize: 0x50 }
  - { offset: 0x36B8C, size: 0x8, addend: 0x0, symName: __ZNSt12_Vector_baseI3objSaIS0_EE11_M_allocateEm, symObjAddr: 0x1474, symBinAddr: 0x100001BBC, symSize: 0xD8 }
  - { offset: 0x36C54, size: 0x8, addend: 0x0, symName: __ZNSt12_Vector_baseI3objSaIS0_EE17_Vector_impl_dataC2Ev, symObjAddr: 0x1448, symBinAddr: 0x100001B90, symSize: 0x2C }
  - { offset: 0x36C91, size: 0x8, addend: 0x0, symName: __ZSt13__countl_zeroImEiT_, symObjAddr: 0x1428, symBinAddr: 0x100001B70, symSize: 0x20 }
  - { offset: 0x36CD3, size: 0x8, addend: 0x0, symName: __ZSt8_DestroyIPxEvT_S1_, symObjAddr: 0x13CC, symBinAddr: 0x100001B14, symSize: 0x5C }
  - { offset: 0x36D51, size: 0x8, addend: 0x0, symName: __ZSt24__uninitialized_fill_n_aIPxmxxET_S1_T0_RKT1_RSaIT2_E, symObjAddr: 0x1374, symBinAddr: 0x100001ABC, symSize: 0x58 }
  - { offset: 0x36DCE, size: 0x8, addend: 0x0, symName: __ZNSt12_Vector_baseIxSaIxEE13_M_deallocateEPxm, symObjAddr: 0x12E8, symBinAddr: 0x100001A30, symSize: 0x8C }
  - { offset: 0x36EA0, size: 0x8, addend: 0x0, symName: __ZNSt12_Vector_baseIxSaIxEE17_M_create_storageEm, symObjAddr: 0x1288, symBinAddr: 0x1000019D0, symSize: 0x60 }
  - { offset: 0x36F02, size: 0x8, addend: 0x0, symName: __ZNSt12_Vector_baseIxSaIxEE12_Vector_implC1ERKS0_, symObjAddr: 0x123C, symBinAddr: 0x100001984, symSize: 0x4C }
  - { offset: 0x36FA8, size: 0x8, addend: 0x0, symName: __ZNSt6vectorIxSaIxEE11_S_max_sizeERKS0_, symObjAddr: 0x1208, symBinAddr: 0x100001950, symSize: 0x34 }
  - { offset: 0x36FF4, size: 0x8, addend: 0x0, symName: __ZSt22__final_insertion_sortIN9__gnu_cxx17__normal_iteratorIP3objSt6vectorIS2_SaIS2_EEEENS0_5__ops15_Iter_comp_iterIPFbRS2_SA_EEEEvT_SE_T0_, symObjAddr: 0x10FC, symBinAddr: 0x100001844, symSize: 0x10C }
  - { offset: 0x37166, size: 0x8, addend: 0x0, symName: __ZSt16__introsort_loopIN9__gnu_cxx17__normal_iteratorIP3objSt6vectorIS2_SaIS2_EEEElNS0_5__ops15_Iter_comp_iterIPFbRS2_SA_EEEEvT_SE_T0_T1_, symObjAddr: 0x102C, symBinAddr: 0x100001774, symSize: 0xD0 }
  - { offset: 0x37271, size: 0x8, addend: 0x0, symName: __ZSt4__lgIlET_S0_, symObjAddr: 0x1008, symBinAddr: 0x100001750, symSize: 0x24 }
  - { offset: 0x372CF, size: 0x8, addend: 0x0, symName: __ZN9__gnu_cxx5__ops15_Iter_comp_iterIPFbR3objS3_EEC1ES5_, symObjAddr: 0xFE0, symBinAddr: 0x100001728, symSize: 0x28 }
  - { offset: 0x37346, size: 0x8, addend: 0x0, symName: __ZSt8_DestroyIP3objEvT_S2_, symObjAddr: 0xF84, symBinAddr: 0x1000016CC, symSize: 0x5C }
  - { offset: 0x373C4, size: 0x8, addend: 0x0, symName: __ZSt27__uninitialized_default_n_aIP3objmS0_ET_S2_T0_RSaIT1_E, symObjAddr: 0xF5C, symBinAddr: 0x1000016A4, symSize: 0x28 }
  - { offset: 0x37427, size: 0x8, addend: 0x0, symName: __ZNSt12_Vector_baseI3objSaIS0_EE13_M_deallocateEPS0_m, symObjAddr: 0xED0, symBinAddr: 0x100001618, symSize: 0x8C }
  - { offset: 0x374F9, size: 0x8, addend: 0x0, symName: __ZNSt12_Vector_baseI3objSaIS0_EE17_M_create_storageEm, symObjAddr: 0xE64, symBinAddr: 0x1000015AC, symSize: 0x6C }
  - { offset: 0x3755B, size: 0x8, addend: 0x0, symName: __ZNSt12_Vector_baseI3objSaIS0_EE12_Vector_implC1ERKS1_, symObjAddr: 0xE18, symBinAddr: 0x100001560, symSize: 0x4C }
  - { offset: 0x37601, size: 0x8, addend: 0x0, symName: __ZNSt6vectorI3objSaIS0_EE11_S_max_sizeERKS1_, symObjAddr: 0xDDC, symBinAddr: 0x100001524, symSize: 0x3C }
  - { offset: 0x3764D, size: 0x8, addend: 0x0, symName: __ZSt11__bit_widthImEiT_, symObjAddr: 0xDAC, symBinAddr: 0x1000014F4, symSize: 0x30 }
  - { offset: 0x37695, size: 0x8, addend: 0x0, symName: __ZNKSt6vectorIxSaIxEE4sizeEv, symObjAddr: 0xD6C, symBinAddr: 0x1000014B4, symSize: 0x40 }
  - { offset: 0x3770B, size: 0x8, addend: 0x0, symName: __ZNSt12_Vector_baseIxSaIxEE19_M_get_Tp_allocatorEv, symObjAddr: 0xD58, symBinAddr: 0x1000014A0, symSize: 0x14 }
  - { offset: 0x37735, size: 0x8, addend: 0x0, symName: __ZNSt6vectorIxSaIxEE18_M_fill_initializeEmRKx, symObjAddr: 0xD00, symBinAddr: 0x100001448, symSize: 0x58 }
  - { offset: 0x3779B, size: 0x8, addend: 0x0, symName: __ZNSt12_Vector_baseIxSaIxEED2Ev, symObjAddr: 0xCB0, symBinAddr: 0x1000013F8, symSize: 0x50 }
  - { offset: 0x377F7, size: 0x8, addend: 0x0, symName: __ZNSt12_Vector_baseIxSaIxEEC2EmRKS0_, symObjAddr: 0xC5C, symBinAddr: 0x1000013A4, symSize: 0x54 }
  - { offset: 0x3784C, size: 0x8, addend: 0x0, symName: __ZNSt12_Vector_baseIxSaIxEE12_Vector_implD1Ev, symObjAddr: 0xC3C, symBinAddr: 0x100001384, symSize: 0x20 }
  - { offset: 0x37891, size: 0x8, addend: 0x0, symName: __ZNSt6vectorIxSaIxEE17_S_check_init_lenEmRKS0_, symObjAddr: 0xBC8, symBinAddr: 0x100001310, symSize: 0x74 }
  - { offset: 0x37959, size: 0x8, addend: 0x0, symName: __ZSt6__sortIN9__gnu_cxx17__normal_iteratorIP3objSt6vectorIS2_SaIS2_EEEENS0_5__ops15_Iter_comp_iterIPFbRS2_SA_EEEEvT_SE_T0_, symObjAddr: 0xB08, symBinAddr: 0x100001250, symSize: 0xC0 }
  - { offset: 0x37B17, size: 0x8, addend: 0x0, symName: __ZN9__gnu_cxx5__ops16__iter_comp_iterIPFbR3objS3_EEENS0_15_Iter_comp_iterIT_EES7_, symObjAddr: 0xAE0, symBinAddr: 0x100001228, symSize: 0x28 }
  - { offset: 0x37B91, size: 0x8, addend: 0x0, symName: __ZNKSt6vectorI3objSaIS0_EE4sizeEv, symObjAddr: 0xA94, symBinAddr: 0x1000011DC, symSize: 0x4C }
  - { offset: 0x37C07, size: 0x8, addend: 0x0, symName: __ZNSt12_Vector_baseI3objSaIS0_EE19_M_get_Tp_allocatorEv, symObjAddr: 0xA80, symBinAddr: 0x1000011C8, symSize: 0x14 }
  - { offset: 0x37C31, size: 0x8, addend: 0x0, symName: __ZNSt6vectorI3objSaIS0_EE21_M_default_initializeEm, symObjAddr: 0xA30, symBinAddr: 0x100001178, symSize: 0x50 }
  - { offset: 0x37C86, size: 0x8, addend: 0x0, symName: __ZNSt12_Vector_baseI3objSaIS0_EED2Ev, symObjAddr: 0x9D4, symBinAddr: 0x10000111C, symSize: 0x5C }
  - { offset: 0x37CE2, size: 0x8, addend: 0x0, symName: __ZNSt12_Vector_baseI3objSaIS0_EEC2EmRKS1_, symObjAddr: 0x980, symBinAddr: 0x1000010C8, symSize: 0x54 }
  - { offset: 0x37D37, size: 0x8, addend: 0x0, symName: __ZNSt12_Vector_baseI3objSaIS0_EE12_Vector_implD1Ev, symObjAddr: 0x960, symBinAddr: 0x1000010A8, symSize: 0x20 }
  - { offset: 0x37D7C, size: 0x8, addend: 0x0, symName: __ZNSt6vectorI3objSaIS0_EE17_S_check_init_lenEmRKS1_, symObjAddr: 0x8EC, symBinAddr: 0x100001034, symSize: 0x74 }
  - { offset: 0x37E44, size: 0x8, addend: 0x0, symName: __ZSt3maxIxERKT_S2_S2_, symObjAddr: 0x8B4, symBinAddr: 0x100000FFC, symSize: 0x38 }
  - { offset: 0x37E8C, size: 0x8, addend: 0x0, symName: __ZNSt6vectorIxSaIxEEixEm, symObjAddr: 0x830, symBinAddr: 0x100000F78, symSize: 0x84 }
  - { offset: 0x37EFC, size: 0x8, addend: 0x0, symName: __ZNSt6vectorIxSaIxEED1Ev, symObjAddr: 0x7D4, symBinAddr: 0x100000F1C, symSize: 0x5C }
  - { offset: 0x37F9C, size: 0x8, addend: 0x0, symName: __ZNSt6vectorIxSaIxEEC1EmRKxRKS0_, symObjAddr: 0x764, symBinAddr: 0x100000EAC, symSize: 0x70 }
  - { offset: 0x38005, size: 0x8, addend: 0x0, symName: __ZSt4sortIN9__gnu_cxx17__normal_iteratorIP3objSt6vectorIS2_SaIS2_EEEEPFbRS2_S8_EEvT_SB_T0_, symObjAddr: 0x72C, symBinAddr: 0x100000E74, symSize: 0x38 }
  - { offset: 0x38067, size: 0x8, addend: 0x0, symName: __ZNSt6vectorI3objSaIS0_EE3endEv, symObjAddr: 0x6FC, symBinAddr: 0x100000E44, symSize: 0x30 }
  - { offset: 0x380DF, size: 0x8, addend: 0x0, symName: __ZNSt6vectorI3objSaIS0_EE5beginEv, symObjAddr: 0x6D0, symBinAddr: 0x100000E18, symSize: 0x2C }
  - { offset: 0x38133, size: 0x8, addend: 0x0, symName: __ZNSt6vectorI3objSaIS0_EEixEm, symObjAddr: 0x640, symBinAddr: 0x100000D88, symSize: 0x90 }
  - { offset: 0x381A3, size: 0x8, addend: 0x0, symName: __ZNSt6vectorI3objSaIS0_EED1Ev, symObjAddr: 0x5E4, symBinAddr: 0x100000D2C, symSize: 0x5C }
  - { offset: 0x38235, size: 0x8, addend: 0x0, symName: __ZNSt6vectorI3objSaIS0_EEC1EmRKS1_, symObjAddr: 0x57C, symBinAddr: 0x100000CC4, symSize: 0x68 }
  - { offset: 0x3829C, size: 0x8, addend: 0x0, symName: _main, symObjAddr: 0x504, symBinAddr: 0x100000C4C, symSize: 0x78 }
  - { offset: 0x382CC, size: 0x8, addend: 0x0, symName: __Z5solvev, symObjAddr: 0xD8, symBinAddr: 0x100000820, symSize: 0x42C }
  - { offset: 0x384E7, size: 0x8, addend: 0x0, symName: __Z3cmpR3objS0_, symObjAddr: 0xA8, symBinAddr: 0x1000007F0, symSize: 0x30 }
  - { offset: 0x38520, size: 0x8, addend: 0x0, symName: __ZSt3minImERKT_S2_S2_, symObjAddr: 0x70, symBinAddr: 0x1000007B8, symSize: 0x38 }
  - { offset: 0x38562, size: 0x8, addend: 0x0, symName: __ZSt17__size_to_integerm, symObjAddr: 0x5C, symBinAddr: 0x1000007A4, symSize: 0x14 }
  - { offset: 0x38593, size: 0x8, addend: 0x0, symName: __ZdlPvS_, symObjAddr: 0x44, symBinAddr: 0x10000078C, symSize: 0x18 }
  - { offset: 0x385C9, size: 0x8, addend: 0x0, symName: __ZnwmPv, symObjAddr: 0x2C, symBinAddr: 0x100000774, symSize: 0x18 }
  - { offset: 0x385FB, size: 0x8, addend: 0x0, symName: __ZStltSt15strong_orderingNSt9__cmp_cat8__unspecE, symObjAddr: 0x8, symBinAddr: 0x100000750, symSize: 0x24 }
  - { offset: 0x3862E, size: 0x8, addend: 0x0, symName: __ZSt21is_constant_evaluatedv, symObjAddr: 0x0, symBinAddr: 0x100000748, symSize: 0x8 }
...
