---
triple:          'arm64-apple-darwin'
binary-path:     "/Users/gsh/Algorithms/24上海/output/B"
relocations:
  - { offset: 0x370AF, size: 0x8, addend: 0x0, symName: __ZStL8__ioinit, symObjAddr: 0x109CB1, symBinAddr: 0x10000C000, symSize: 0x0 }
  - { offset: 0x38134, size: 0x8, addend: 0x0, symName: __GLOBAL__sub_I_B.cpp, symObjAddr: 0x40E4, symBinAddr: 0x10000439C, symSize: 0x14 }
  - { offset: 0x3814C, size: 0x8, addend: 0x0, symName: __Z41__static_initialization_and_destruction_0v, symObjAddr: 0x40A8, symBinAddr: 0x100004360, symSize: 0x3C }
  - { offset: 0x38168, size: 0x8, addend: 0x0, symName: __ZNSt15__new_allocatorISt13_Rb_tree_nodeIxEE10deallocateEPS1_m, symObjAddr: 0x3C2C, symBinAddr: 0x100004324, symSize: 0x3C }
  - { offset: 0x38234, size: 0x8, addend: 0x0, symName: __ZSt9__fill_a1IPxxEvT_S1_RKT0_, symObjAddr: 0x3BCC, symBinAddr: 0x1000042C4, symSize: 0x60 }
  - { offset: 0x382F5, size: 0x8, addend: 0x0, symName: __ZN9__gnu_cxx16__aligned_membufIxE7_M_addrEv, symObjAddr: 0x3BB8, symBinAddr: 0x1000042B0, symSize: 0x14 }
  - { offset: 0x3831F, size: 0x8, addend: 0x0, symName: __ZNSt15__new_allocatorISt13_Rb_tree_nodeIxEE8allocateEmPKv, symObjAddr: 0x3B28, symBinAddr: 0x100004220, symSize: 0x90 }
  - { offset: 0x38395, size: 0x8, addend: 0x0, symName: __ZNSt8_Rb_treeIxxSt9_IdentityIxESt4lessIxESaIxEE15_M_destroy_nodeEPSt13_Rb_tree_nodeIxE, symObjAddr: 0x3ADC, symBinAddr: 0x1000041D4, symSize: 0x4C }
  - { offset: 0x3840F, size: 0x8, addend: 0x0, symName: __ZSt19__relocate_object_aISt4pairIxxES1_SaIS1_EEvPT_PT0_RT1_, symObjAddr: 0x3A5C, symBinAddr: 0x100004154, symSize: 0x80 }
  - { offset: 0x3854C, size: 0x8, addend: 0x0, symName: __ZNSt15__new_allocatorISt4pairIxxEE8allocateEmPKv, symObjAddr: 0x39E0, symBinAddr: 0x1000040D8, symSize: 0x7C }
  - { offset: 0x3864E, size: 0x8, addend: 0x0, symName: __ZN9__gnu_cxx16__aligned_membufIxE6_M_ptrEv, symObjAddr: 0x39C4, symBinAddr: 0x1000040BC, symSize: 0x1C }
  - { offset: 0x386C0, size: 0x8, addend: 0x0, symName: __ZNSt13_Rb_tree_nodeIxE11_M_node_ptrEv, symObjAddr: 0x39B0, symBinAddr: 0x1000040A8, symSize: 0x14 }
  - { offset: 0x386EA, size: 0x8, addend: 0x0, symName: __ZNSt8_Rb_treeIxxSt9_IdentityIxESt4lessIxESaIxEE12_M_drop_nodeEPSt13_Rb_tree_nodeIxE, symObjAddr: 0x397C, symBinAddr: 0x100004074, symSize: 0x34 }
  - { offset: 0x38721, size: 0x8, addend: 0x0, symName: __ZNSt8_Rb_treeIxxSt9_IdentityIxESt4lessIxESaIxEE7_S_leftEPSt13_Rb_tree_nodeIxE, symObjAddr: 0x3944, symBinAddr: 0x10000403C, symSize: 0x38 }
  - { offset: 0x3874B, size: 0x8, addend: 0x0, symName: __ZNSt8_Rb_treeIxxSt9_IdentityIxESt4lessIxESaIxEE8_S_rightEPSt13_Rb_tree_nodeIxE, symObjAddr: 0x390C, symBinAddr: 0x100004004, symSize: 0x38 }
  - { offset: 0x38793, size: 0x8, addend: 0x0, symName: __ZNSt20_Rb_tree_key_compareISt4lessIxEEC2Ev, symObjAddr: 0x38F8, symBinAddr: 0x100003FF0, symSize: 0x14 }
  - { offset: 0x3881B, size: 0x8, addend: 0x0, symName: __ZSt14__relocate_a_1IPSt4pairIxxES2_SaIS1_EET0_T_S5_S4_RT1_, symObjAddr: 0x3880, symBinAddr: 0x100003F78, symSize: 0x78 }
  - { offset: 0x3899D, size: 0x8, addend: 0x0, symName: __ZSt12construct_atIxJEQaant20is_unbounded_array_vIT_ErqXgsnwcvPvLi0E_S0_pispcl7declvalIT0_EEEEEPS0_S3_DpOS2_, symObjAddr: 0x3824, symBinAddr: 0x100003F1C, symSize: 0x5C }
  - { offset: 0x389F1, size: 0x8, addend: 0x0, symName: __ZNSt15__new_allocatorIxE8allocateEmPKv, symObjAddr: 0x37A8, symBinAddr: 0x100003EA0, symSize: 0x7C }
  - { offset: 0x38A67, size: 0x8, addend: 0x0, symName: __ZNSt8_Rb_treeIxxSt9_IdentityIxESt4lessIxESaIxEE11_M_put_nodeEPSt13_Rb_tree_nodeIxE, symObjAddr: 0x3728, symBinAddr: 0x100003E20, symSize: 0x80 }
  - { offset: 0x38B6F, size: 0x8, addend: 0x0, symName: __ZNSt13_Rb_tree_nodeIxE9_M_valptrEv, symObjAddr: 0x3708, symBinAddr: 0x100003E00, symSize: 0x20 }
  - { offset: 0x38BDB, size: 0x8, addend: 0x0, symName: __ZNSt8_Rb_treeIxxSt9_IdentityIxESt4lessIxESaIxEE21_M_get_Node_allocatorEv, symObjAddr: 0x36F4, symBinAddr: 0x100003DEC, symSize: 0x14 }
  - { offset: 0x38C05, size: 0x8, addend: 0x0, symName: __ZNKSt8_Rb_treeIxxSt9_IdentityIxESt4lessIxESaIxEE13_M_begin_nodeEv, symObjAddr: 0x36B8, symBinAddr: 0x100003DB0, symSize: 0x3C }
  - { offset: 0x38C40, size: 0x8, addend: 0x0, symName: __ZNSt8_Rb_treeIxxSt9_IdentityIxESt4lessIxESaIxEE8_M_eraseEPSt13_Rb_tree_nodeIxE, symObjAddr: 0x3654, symBinAddr: 0x100003D4C, symSize: 0x64 }
  - { offset: 0x38CCF, size: 0x8, addend: 0x0, symName: __ZNSt8_Rb_treeIxxSt9_IdentityIxESt4lessIxESaIxEE13_Rb_tree_implIS3_Lb1EEC1Ev, symObjAddr: 0x3610, symBinAddr: 0x100003D08, symSize: 0x44 }
  - { offset: 0x38D38, size: 0x8, addend: 0x0, symName: __ZSt12construct_atISt3setIxSt4lessIxESaIxEEJEQaant20is_unbounded_array_vIT_ErqXgsnwcvPvLi0E_S5_pispcl7declvalIT0_EEEEEPS5_S8_DpOS7_, symObjAddr: 0x35A4, symBinAddr: 0x100003C9C, symSize: 0x6C }
  - { offset: 0x38D8C, size: 0x8, addend: 0x0, symName: __ZNSt15__new_allocatorISt3setIxSt4lessIxESaIxEEE8allocateEmPKv, symObjAddr: 0x3514, symBinAddr: 0x100003C0C, symSize: 0x90 }
  - { offset: 0x38E3F, size: 0x8, addend: 0x0, symName: __ZNKSt6vectorISt4pairIxxESaIS1_EE3endEv, symObjAddr: 0x34E4, symBinAddr: 0x100003BDC, symSize: 0x30 }
  - { offset: 0x38E93, size: 0x8, addend: 0x0, symName: __ZNKSt6vectorISt4pairIxxESaIS1_EE5beginEv, symObjAddr: 0x34B8, symBinAddr: 0x100003BB0, symSize: 0x2C }
  - { offset: 0x38EE3, size: 0x8, addend: 0x0, symName: __ZSt12__relocate_aIPSt4pairIxxES2_SaIS1_EET0_T_S5_S4_RT1_, symObjAddr: 0x346C, symBinAddr: 0x100003B64, symSize: 0x4C }
  - { offset: 0x38FEB, size: 0x8, addend: 0x0, symName: __ZSt12construct_atIxJRKxEQaant20is_unbounded_array_vIT_ErqXgsnwcvPvLi0E_S2_pispcl7declvalIT0_EEEEEPS2_S5_DpOS4_, symObjAddr: 0x33FC, symBinAddr: 0x100003AF4, symSize: 0x70 }
  - { offset: 0x390BB, size: 0x8, addend: 0x0, symName: __ZSt10_ConstructIxJEEvPT_DpOT0_, symObjAddr: 0x3398, symBinAddr: 0x100003A90, symSize: 0x64 }
  - { offset: 0x39118, size: 0x8, addend: 0x0, symName: __ZNSt15__new_allocatorIxE10deallocateEPxm, symObjAddr: 0x3368, symBinAddr: 0x100003A60, symSize: 0x30 }
  - { offset: 0x39185, size: 0x8, addend: 0x0, symName: __ZNSt8_Rb_treeIxxSt9_IdentityIxESt4lessIxESaIxEE17_M_construct_nodeIJRKxEEEvPSt13_Rb_tree_nodeIxEDpOT_, symObjAddr: 0x32B0, symBinAddr: 0x1000039A8, symSize: 0xB8 }
  - { offset: 0x392A7, size: 0x8, addend: 0x0, symName: __ZNSt8_Rb_treeIxxSt9_IdentityIxESt4lessIxESaIxEE11_M_get_nodeEv, symObjAddr: 0x31DC, symBinAddr: 0x1000038D4, symSize: 0xD4 }
  - { offset: 0x3935E, size: 0x8, addend: 0x0, symName: __ZNSt8_Rb_treeIxxSt9_IdentityIxESt4lessIxESaIxEED1Ev, symObjAddr: 0x31A8, symBinAddr: 0x1000038A0, symSize: 0x34 }
  - { offset: 0x39384, size: 0x8, addend: 0x0, symName: __ZNSt19_UninitDestroyGuardIPSt3setIxSt4lessIxESaIxEEvE7releaseEv, symObjAddr: 0x318C, symBinAddr: 0x100003884, symSize: 0x1C }
  - { offset: 0x393AA, size: 0x8, addend: 0x0, symName: __ZSt10_ConstructISt3setIxSt4lessIxESaIxEEJEEvPT_DpOT0_, symObjAddr: 0x3110, symBinAddr: 0x100003808, symSize: 0x7C }
  - { offset: 0x39421, size: 0x8, addend: 0x0, symName: __ZNSt3setIxSt4lessIxESaIxEEC1Ev, symObjAddr: 0x30F0, symBinAddr: 0x1000037E8, symSize: 0x20 }
  - { offset: 0x39461, size: 0x8, addend: 0x0, symName: __ZNSt8_Rb_treeIxxSt9_IdentityIxESt4lessIxESaIxEEC1Ev, symObjAddr: 0x30D0, symBinAddr: 0x1000037C8, symSize: 0x20 }
  - { offset: 0x394A5, size: 0x8, addend: 0x0, symName: __ZNSt8_Rb_treeIxxSt9_IdentityIxESt4lessIxESaIxEE13_Rb_tree_implIS3_Lb1EED1Ev, symObjAddr: 0x30B0, symBinAddr: 0x1000037A8, symSize: 0x20 }
  - { offset: 0x39509, size: 0x8, addend: 0x0, symName: __ZNSt19_UninitDestroyGuardIPSt3setIxSt4lessIxESaIxEEvED1Ev, symObjAddr: 0x3058, symBinAddr: 0x100003750, symSize: 0x58 }
  - { offset: 0x3952F, size: 0x8, addend: 0x0, symName: __ZNSt15__new_allocatorISt3setIxSt4lessIxESaIxEEE10deallocateEPS4_m, symObjAddr: 0x301C, symBinAddr: 0x100003714, symSize: 0x3C }
  - { offset: 0x395C0, size: 0x8, addend: 0x0, symName: __ZNKSt6vectorISt4pairIxxESaIS1_EE5emptyEv, symObjAddr: 0x2FC4, symBinAddr: 0x1000036BC, symSize: 0x58 }
  - { offset: 0x39655, size: 0x8, addend: 0x0, symName: __ZNSt6vectorISt4pairIxxESaIS1_EE11_S_relocateEPS1_S4_S4_RS2_, symObjAddr: 0x2F90, symBinAddr: 0x100003688, symSize: 0x34 }
  - { offset: 0x396EE, size: 0x8, addend: 0x0, symName: __ZNSt6vectorISt4pairIxxESaIS1_EE12_Guard_allocD1Ev, symObjAddr: 0x2F44, symBinAddr: 0x10000363C, symSize: 0x4C }
  - { offset: 0x39758, size: 0x8, addend: 0x0, symName: __ZNSt6vectorISt4pairIxxESaIS1_EE12_Guard_allocC1EPS1_mRSt12_Vector_baseIS1_S2_E, symObjAddr: 0x2F00, symBinAddr: 0x1000035F8, symSize: 0x44 }
  - { offset: 0x39799, size: 0x8, addend: 0x0, symName: __ZNSt12_Vector_baseISt4pairIxxESaIS1_EE11_M_allocateEm, symObjAddr: 0x2E3C, symBinAddr: 0x100003534, symSize: 0xC4 }
  - { offset: 0x39843, size: 0x8, addend: 0x0, symName: __ZSt12construct_atISt4pairIxxEJS1_EQaant20is_unbounded_array_vIT_ErqXgsnwcvPvLi0E_S2_pispcl7declvalIT0_EEEEEPS2_S5_DpOS4_, symObjAddr: 0x2DCC, symBinAddr: 0x1000034C4, symSize: 0x70 }
  - { offset: 0x398CA, size: 0x8, addend: 0x0, symName: __ZNSt15__new_allocatorISt4pairIxxEE10deallocateEPS1_m, symObjAddr: 0x2D9C, symBinAddr: 0x100003494, symSize: 0x30 }
  - { offset: 0x39914, size: 0x8, addend: 0x0, symName: __ZNSt19_UninitDestroyGuardIPxvE7releaseEv, symObjAddr: 0x2D80, symBinAddr: 0x100003478, symSize: 0x1C }
  - { offset: 0x3993A, size: 0x8, addend: 0x0, symName: __ZSt10_ConstructIxJRKxEEvPT_DpOT0_, symObjAddr: 0x2CF8, symBinAddr: 0x1000033F0, symSize: 0x88 }
  - { offset: 0x39A07, size: 0x8, addend: 0x0, symName: __ZNSt19_UninitDestroyGuardIPxvED1Ev, symObjAddr: 0x2CA0, symBinAddr: 0x100003398, symSize: 0x58 }
  - { offset: 0x39A29, size: 0x8, addend: 0x0, symName: __ZNSt27__uninitialized_default_n_1ILb1EE18__uninit_default_nIPxmEET_S3_T0_, symObjAddr: 0x2BAC, symBinAddr: 0x1000032A4, symSize: 0xF4 }
  - { offset: 0x39B97, size: 0x8, addend: 0x0, symName: __ZNSt27__uninitialized_default_n_1ILb0EE18__uninit_default_nIPxmEET_S3_T0_, symObjAddr: 0x2B30, symBinAddr: 0x100003228, symSize: 0x7C }
  - { offset: 0x39C71, size: 0x8, addend: 0x0, symName: __ZNSt8_Rb_treeIxxSt9_IdentityIxESt4lessIxESaIxEE14_M_create_nodeIJRKxEEEPSt13_Rb_tree_nodeIxEDpOT_, symObjAddr: 0x2AEC, symBinAddr: 0x1000031E4, symSize: 0x44 }
  - { offset: 0x39D43, size: 0x8, addend: 0x0, symName: __ZNSt8_Rb_treeIxxSt9_IdentityIxESt4lessIxESaIxEE6_S_keyERKSt13_Rb_tree_nodeIxE, symObjAddr: 0x2AC4, symBinAddr: 0x1000031BC, symSize: 0x28 }
  - { offset: 0x39D6D, size: 0x8, addend: 0x0, symName: __ZSt10destroy_atISt3setIxSt4lessIxESaIxEEEvPT_, symObjAddr: 0x2AA4, symBinAddr: 0x10000319C, symSize: 0x20 }
  - { offset: 0x39DBD, size: 0x8, addend: 0x0, symName: __ZNSt3setIxSt4lessIxESaIxEED1Ev, symObjAddr: 0x2A84, symBinAddr: 0x10000317C, symSize: 0x20 }
  - { offset: 0x39DDF, size: 0x8, addend: 0x0, symName: __ZNSt27__uninitialized_default_n_1ILb0EE18__uninit_default_nIPSt3setIxSt4lessIxESaIxEEmEET_S8_T0_, symObjAddr: 0x2A08, symBinAddr: 0x100003100, symSize: 0x7C }
  - { offset: 0x39E8C, size: 0x8, addend: 0x0, symName: __ZNSt19_UninitDestroyGuardIPSt3setIxSt4lessIxESaIxEEvEC1ERS5_, symObjAddr: 0x29D4, symBinAddr: 0x1000030CC, symSize: 0x34 }
  - { offset: 0x39F0F, size: 0x8, addend: 0x0, symName: __ZNSt6vectorISt4pairIxxESaIS1_EE4backEv, symObjAddr: 0x2938, symBinAddr: 0x100003030, symSize: 0x9C }
  - { offset: 0x39FC6, size: 0x8, addend: 0x0, symName: __ZNSt6vectorISt4pairIxxESaIS1_EE17_M_realloc_appendIJS1_EEEvDpOT_, symObjAddr: 0x2788, symBinAddr: 0x100002E80, symSize: 0x1B0 }
  - { offset: 0x3A22C, size: 0x8, addend: 0x0, symName: __ZNSt6vectorISt4pairIxxESaIS1_EE11_S_max_sizeERKS2_, symObjAddr: 0x2754, symBinAddr: 0x100002E4C, symSize: 0x34 }
  - { offset: 0x3A27C, size: 0x8, addend: 0x0, symName: __ZNKSt12_Vector_baseISt4pairIxxESaIS1_EE19_M_get_Tp_allocatorEv, symObjAddr: 0x2740, symBinAddr: 0x100002E38, symSize: 0x14 }
  - { offset: 0x3A2A6, size: 0x8, addend: 0x0, symName: __ZNKSt6vectorISt4pairIxxESaIS1_EE8max_sizeEv, symObjAddr: 0x2720, symBinAddr: 0x100002E18, symSize: 0x20 }
  - { offset: 0x3A2D0, size: 0x8, addend: 0x0, symName: __ZNKSt6vectorISt4pairIxxESaIS1_EE12_M_check_lenEmPKc, symObjAddr: 0x2650, symBinAddr: 0x100002D48, symSize: 0xD0 }
  - { offset: 0x3A39A, size: 0x8, addend: 0x0, symName: __ZNKSt8_Rb_treeIxxSt9_IdentityIxESt4lessIxESaIxEE14_M_lower_boundEPSt18_Rb_tree_node_baseS7_RKx, symObjAddr: 0x25C0, symBinAddr: 0x100002CB8, symSize: 0x90 }
  - { offset: 0x3A3F7, size: 0x8, addend: 0x0, symName: __ZNK9__gnu_cxx16__aligned_membufIxE7_M_addrEv, symObjAddr: 0x25AC, symBinAddr: 0x100002CA4, symSize: 0x14 }
  - { offset: 0x3A41D, size: 0x8, addend: 0x0, symName: __ZSt10destroy_atISt4pairIxxEEvPT_, symObjAddr: 0x2598, symBinAddr: 0x100002C90, symSize: 0x14 }
  - { offset: 0x3A49D, size: 0x8, addend: 0x0, symName: __ZSt20uninitialized_fill_nIPxmxET_S1_T0_RKT1_, symObjAddr: 0x256C, symBinAddr: 0x100002C64, symSize: 0x2C }
  - { offset: 0x3A504, size: 0x8, addend: 0x0, symName: __ZSt18__do_uninit_fill_nIPxmxET_S1_T0_RKT1_, symObjAddr: 0x24DC, symBinAddr: 0x100002BD4, symSize: 0x90 }
  - { offset: 0x3A5E6, size: 0x8, addend: 0x0, symName: __ZNSt19_UninitDestroyGuardIPxvEC1ERS0_, symObjAddr: 0x24A8, symBinAddr: 0x100002BA0, symSize: 0x34 }
  - { offset: 0x3A611, size: 0x8, addend: 0x0, symName: __ZSt10destroy_atIxEvPT_, symObjAddr: 0x2494, symBinAddr: 0x100002B8C, symSize: 0x14 }
  - { offset: 0x3A661, size: 0x8, addend: 0x0, symName: __ZSt25__uninitialized_default_nIPxmET_S1_T0_, symObjAddr: 0x2444, symBinAddr: 0x100002B3C, symSize: 0x50 }
  - { offset: 0x3A6F5, size: 0x8, addend: 0x0, symName: __ZNSt12_Vector_baseIxSaIxEE11_M_allocateEm, symObjAddr: 0x2380, symBinAddr: 0x100002A78, symSize: 0xC4 }
  - { offset: 0x3A7BD, size: 0x8, addend: 0x0, symName: __ZNSt12_Vector_baseIxSaIxEE17_Vector_impl_dataC2Ev, symObjAddr: 0x2354, symBinAddr: 0x100002A4C, symSize: 0x2C }
  - { offset: 0x3A826, size: 0x8, addend: 0x0, symName: __ZNSt9__rb_tree12_Node_traitsIxPxE23_S_insert_and_rebalanceEbPSt18_Rb_tree_node_baseS4_RS3_, symObjAddr: 0x231C, symBinAddr: 0x100002A14, symSize: 0x38 }
  - { offset: 0x3A893, size: 0x8, addend: 0x0, symName: __ZNKSt8_Rb_treeIxxSt9_IdentityIxESt4lessIxESaIxEE11_Alloc_nodeclIRKxEEPSt13_Rb_tree_nodeIxEOT_, symObjAddr: 0x22EC, symBinAddr: 0x1000029E4, symSize: 0x30 }
  - { offset: 0x3A943, size: 0x8, addend: 0x0, symName: __ZNSt4pairIPSt18_Rb_tree_node_baseS1_EC1IRS1_S1_EEOT_OT0_, symObjAddr: 0x22A0, symBinAddr: 0x100002998, symSize: 0x4C }
  - { offset: 0x3A9D5, size: 0x8, addend: 0x0, symName: __ZNSt17_Rb_tree_iteratorIxEmmEv, symObjAddr: 0x2270, symBinAddr: 0x100002968, symSize: 0x30 }
  - { offset: 0x3AA47, size: 0x8, addend: 0x0, symName: __ZNSt4pairIPSt18_Rb_tree_node_baseS1_EC1IRS1_S4_EEOT_OT0_, symObjAddr: 0x2224, symBinAddr: 0x10000291C, symSize: 0x4C }
  - { offset: 0x3AAD5, size: 0x8, addend: 0x0, symName: __ZSteqRKSt17_Rb_tree_iteratorIxES2_, symObjAddr: 0x21F4, symBinAddr: 0x1000028EC, symSize: 0x30 }
  - { offset: 0x3AB14, size: 0x8, addend: 0x0, symName: __ZNSt8_Rb_treeIxxSt9_IdentityIxESt4lessIxESaIxEE5beginEv, symObjAddr: 0x21CC, symBinAddr: 0x1000028C4, symSize: 0x28 }
  - { offset: 0x3AB3A, size: 0x8, addend: 0x0, symName: __ZNSt8_Rb_treeIxxSt9_IdentityIxESt4lessIxESaIxEE8_S_rightEPSt18_Rb_tree_node_base, symObjAddr: 0x21B4, symBinAddr: 0x1000028AC, symSize: 0x18 }
  - { offset: 0x3AB64, size: 0x8, addend: 0x0, symName: __ZNSt8_Rb_treeIxxSt9_IdentityIxESt4lessIxESaIxEE7_S_leftEPSt18_Rb_tree_node_base, symObjAddr: 0x219C, symBinAddr: 0x100002894, symSize: 0x18 }
  - { offset: 0x3AB92, size: 0x8, addend: 0x0, symName: __ZNKSt4lessIxEclERKxS2_, symObjAddr: 0x2168, symBinAddr: 0x100002860, symSize: 0x34 }
  - { offset: 0x3ABDA, size: 0x8, addend: 0x0, symName: __ZNSt8_Rb_treeIxxSt9_IdentityIxESt4lessIxESaIxEE6_S_keyEPSt18_Rb_tree_node_base, symObjAddr: 0x214C, symBinAddr: 0x100002844, symSize: 0x1C }
  - { offset: 0x3AC08, size: 0x8, addend: 0x0, symName: __ZNKSt8_Rb_treeIxxSt9_IdentityIxESt4lessIxESaIxEE8_M_beginEv, symObjAddr: 0x2134, symBinAddr: 0x10000282C, symSize: 0x18 }
  - { offset: 0x3AC2E, size: 0x8, addend: 0x0, symName: __ZSt8_DestroyISt3setIxSt4lessIxESaIxEEEvPT_, symObjAddr: 0x2114, symBinAddr: 0x10000280C, symSize: 0x20 }
  - { offset: 0x3AC7E, size: 0x8, addend: 0x0, symName: __ZSt25__uninitialized_default_nIPSt3setIxSt4lessIxESaIxEEmET_S6_T0_, symObjAddr: 0x20C4, symBinAddr: 0x1000027BC, symSize: 0x50 }
  - { offset: 0x3AD12, size: 0x8, addend: 0x0, symName: __ZNSt12_Vector_baseISt3setIxSt4lessIxESaIxEESaIS4_EE11_M_allocateEm, symObjAddr: 0x1FEC, symBinAddr: 0x1000026E4, symSize: 0xD8 }
  - { offset: 0x3ADDA, size: 0x8, addend: 0x0, symName: __ZNSt12_Vector_baseISt3setIxSt4lessIxESaIxEESaIS4_EE17_Vector_impl_dataC2Ev, symObjAddr: 0x1FC0, symBinAddr: 0x1000026B8, symSize: 0x2C }
  - { offset: 0x3AE40, size: 0x8, addend: 0x0, symName: __ZNSt6vectorISt4pairIxxESaIS1_EE12emplace_backIJS1_EEERS1_DpOT_, symObjAddr: 0x1F18, symBinAddr: 0x100002610, symSize: 0xA8 }
  - { offset: 0x3AF27, size: 0x8, addend: 0x0, symName: __ZNKSt8_Rb_treeIxxSt9_IdentityIxESt4lessIxESaIxEE4findERKx, symObjAddr: 0x1E68, symBinAddr: 0x100002560, symSize: 0xB0 }
  - { offset: 0x3AF73, size: 0x8, addend: 0x0, symName: __ZNK9__gnu_cxx16__aligned_membufIxE6_M_ptrEv, symObjAddr: 0x1E4C, symBinAddr: 0x100002544, symSize: 0x1C }
  - { offset: 0x3AF9D, size: 0x8, addend: 0x0, symName: __ZNKSt8_Rb_treeIxxSt9_IdentityIxESt4lessIxESaIxEE6_M_endEv, symObjAddr: 0x1E2C, symBinAddr: 0x100002524, symSize: 0x20 }
  - { offset: 0x3AFEF, size: 0x8, addend: 0x0, symName: __ZNSt23_Rb_tree_const_iteratorIxEC1EPSt18_Rb_tree_node_base, symObjAddr: 0x1E08, symBinAddr: 0x100002500, symSize: 0x24 }
  - { offset: 0x3B01A, size: 0x8, addend: 0x0, symName: __ZSt8_DestroyIPSt4pairIxxEEvT_S3_, symObjAddr: 0x1DAC, symBinAddr: 0x1000024A4, symSize: 0x5C }
  - { offset: 0x3B0CA, size: 0x8, addend: 0x0, symName: __ZSt24__uninitialized_fill_n_aIPxmxxET_S1_T0_RKT1_RSaIT2_E, symObjAddr: 0x1D54, symBinAddr: 0x10000244C, symSize: 0x58 }
  - { offset: 0x3B143, size: 0x8, addend: 0x0, symName: __ZSt8_DestroyIPxEvT_S1_, symObjAddr: 0x1CF8, symBinAddr: 0x1000023F0, symSize: 0x5C }
  - { offset: 0x3B1C1, size: 0x8, addend: 0x0, symName: __ZSt27__uninitialized_default_n_aIPxmxET_S1_T0_RSaIT1_E, symObjAddr: 0x1CD0, symBinAddr: 0x1000023C8, symSize: 0x28 }
  - { offset: 0x3B224, size: 0x8, addend: 0x0, symName: __ZNSt12_Vector_baseIxSaIxEE13_M_deallocateEPxm, symObjAddr: 0x1C44, symBinAddr: 0x10000233C, symSize: 0x8C }
  - { offset: 0x3B2F6, size: 0x8, addend: 0x0, symName: __ZNSt12_Vector_baseIxSaIxEE17_M_create_storageEm, symObjAddr: 0x1BE4, symBinAddr: 0x1000022DC, symSize: 0x60 }
  - { offset: 0x3B358, size: 0x8, addend: 0x0, symName: __ZNSt12_Vector_baseIxSaIxEE12_Vector_implC1ERKS0_, symObjAddr: 0x1B98, symBinAddr: 0x100002290, symSize: 0x4C }
  - { offset: 0x3B3FE, size: 0x8, addend: 0x0, symName: __ZNSt6vectorIxSaIxEE11_S_max_sizeERKS0_, symObjAddr: 0x1B64, symBinAddr: 0x10000225C, symSize: 0x34 }
  - { offset: 0x3B476, size: 0x8, addend: 0x0, symName: __ZNSt23_Rb_tree_const_iteratorIxEC1ERKSt17_Rb_tree_iteratorIxE, symObjAddr: 0x1B3C, symBinAddr: 0x100002234, symSize: 0x28 }
  - { offset: 0x3B517, size: 0x8, addend: 0x0, symName: __ZNSt17_Rb_tree_iteratorIxEC1EPSt18_Rb_tree_node_base, symObjAddr: 0x1B18, symBinAddr: 0x100002210, symSize: 0x24 }
  - { offset: 0x3B595, size: 0x8, addend: 0x0, symName: __ZNSt4pairISt17_Rb_tree_iteratorIxEbEC1IS1_bEEOT_OT0_, symObjAddr: 0x1ACC, symBinAddr: 0x1000021C4, symSize: 0x4C }
  - { offset: 0x3B62E, size: 0x8, addend: 0x0, symName: __ZNSt8_Rb_treeIxxSt9_IdentityIxESt4lessIxESaIxEE10_M_insert_IRKxNS5_11_Alloc_nodeEEESt17_Rb_tree_iteratorIxEPSt18_Rb_tree_node_baseSD_OT_RT0_, symObjAddr: 0x19D4, symBinAddr: 0x1000020CC, symSize: 0xF8 }
  - { offset: 0x3B744, size: 0x8, addend: 0x0, symName: __ZNSt8_Rb_treeIxxSt9_IdentityIxESt4lessIxESaIxEE11_Alloc_nodeC1ERS5_, symObjAddr: 0x19B0, symBinAddr: 0x1000020A8, symSize: 0x24 }
  - { offset: 0x3B773, size: 0x8, addend: 0x0, symName: __ZNKSt9_IdentityIxEclERKx, symObjAddr: 0x1998, symBinAddr: 0x100002090, symSize: 0x18 }
  - { offset: 0x3B7AE, size: 0x8, addend: 0x0, symName: __ZNSt8_Rb_treeIxxSt9_IdentityIxESt4lessIxESaIxEE24_M_get_insert_unique_posERKx, symObjAddr: 0x1840, symBinAddr: 0x100001F38, symSize: 0x158 }
  - { offset: 0x3B82E, size: 0x8, addend: 0x0, symName: __ZSt8_DestroyIPSt3setIxSt4lessIxESaIxEEEvT_S6_, symObjAddr: 0x17F0, symBinAddr: 0x100001EE8, symSize: 0x50 }
  - { offset: 0x3B893, size: 0x8, addend: 0x0, symName: __ZSt27__uninitialized_default_n_aIPSt3setIxSt4lessIxESaIxEEmS4_ET_S6_T0_RSaIT1_E, symObjAddr: 0x17C8, symBinAddr: 0x100001EC0, symSize: 0x28 }
  - { offset: 0x3B8F6, size: 0x8, addend: 0x0, symName: __ZNSt12_Vector_baseISt3setIxSt4lessIxESaIxEESaIS4_EE13_M_deallocateEPS4_m, symObjAddr: 0x173C, symBinAddr: 0x100001E34, symSize: 0x8C }
  - { offset: 0x3B9C8, size: 0x8, addend: 0x0, symName: __ZNSt12_Vector_baseISt3setIxSt4lessIxESaIxEESaIS4_EE17_M_create_storageEm, symObjAddr: 0x16D0, symBinAddr: 0x100001DC8, symSize: 0x6C }
  - { offset: 0x3BA2A, size: 0x8, addend: 0x0, symName: __ZNSt12_Vector_baseISt3setIxSt4lessIxESaIxEESaIS4_EE12_Vector_implC1ERKS5_, symObjAddr: 0x1684, symBinAddr: 0x100001D7C, symSize: 0x4C }
  - { offset: 0x3BAD0, size: 0x8, addend: 0x0, symName: __ZNSt6vectorISt3setIxSt4lessIxESaIxEESaIS4_EE11_S_max_sizeERKS5_, symObjAddr: 0x1648, symBinAddr: 0x100001D40, symSize: 0x3C }
  - { offset: 0x3BB8C, size: 0x8, addend: 0x0, symName: __ZNSt4pairIxxEC1IRxS2_EEOT_OT0_, symObjAddr: 0x15FC, symBinAddr: 0x100001CF4, symSize: 0x4C }
  - { offset: 0x3BC1E, size: 0x8, addend: 0x0, symName: __ZNSt6vectorISt4pairIxxESaIS1_EE9push_backEOS1_, symObjAddr: 0x15C8, symBinAddr: 0x100001CC0, symSize: 0x34 }
  - { offset: 0x3BC7D, size: 0x8, addend: 0x0, symName: __ZNKSt3setIxSt4lessIxESaIxEE5countERKx, symObjAddr: 0x1570, symBinAddr: 0x100001C68, symSize: 0x58 }
  - { offset: 0x3BCB8, size: 0x8, addend: 0x0, symName: __ZNKSt13_Rb_tree_nodeIxE9_M_valptrEv, symObjAddr: 0x1550, symBinAddr: 0x100001C48, symSize: 0x20 }
  - { offset: 0x3BCE2, size: 0x8, addend: 0x0, symName: __ZNKSt8_Rb_treeIxxSt9_IdentityIxESt4lessIxESaIxEE3endEv, symObjAddr: 0x1524, symBinAddr: 0x100001C1C, symSize: 0x2C }
  - { offset: 0x3BD0C, size: 0x8, addend: 0x0, symName: __ZNKSt8_Rb_treeIxxSt9_IdentityIxESt4lessIxESaIxEE5beginEv, symObjAddr: 0x14FC, symBinAddr: 0x100001BF4, symSize: 0x28 }
  - { offset: 0x3BD71, size: 0x8, addend: 0x0, symName: __ZNSt12_Vector_baseISt4pairIxxESaIS1_EE19_M_get_Tp_allocatorEv, symObjAddr: 0x14E8, symBinAddr: 0x100001BE0, symSize: 0x14 }
  - { offset: 0x3BD9B, size: 0x8, addend: 0x0, symName: __ZNSt12_Vector_baseISt4pairIxxESaIS1_EE13_M_deallocateEPS1_m, symObjAddr: 0x145C, symBinAddr: 0x100001B54, symSize: 0x8C }
  - { offset: 0x3BE6D, size: 0x8, addend: 0x0, symName: __ZNSt6vectorIxSaIxEE18_M_fill_initializeEmRKx, symObjAddr: 0x1404, symBinAddr: 0x100001AFC, symSize: 0x58 }
  - { offset: 0x3BEB9, size: 0x8, addend: 0x0, symName: __ZNKSt8_Rb_treeIxxSt9_IdentityIxESt4lessIxESaIxEE4sizeEv, symObjAddr: 0x13EC, symBinAddr: 0x100001AE4, symSize: 0x18 }
  - { offset: 0x3BEE3, size: 0x8, addend: 0x0, symName: __ZNKSt6vectorIxSaIxEE4sizeEv, symObjAddr: 0x13AC, symBinAddr: 0x100001AA4, symSize: 0x40 }
  - { offset: 0x3BF59, size: 0x8, addend: 0x0, symName: __ZNSt12_Vector_baseIxSaIxEE19_M_get_Tp_allocatorEv, symObjAddr: 0x1398, symBinAddr: 0x100001A90, symSize: 0x14 }
  - { offset: 0x3BF83, size: 0x8, addend: 0x0, symName: __ZNSt6vectorIxSaIxEE21_M_default_initializeEm, symObjAddr: 0x1348, symBinAddr: 0x100001A40, symSize: 0x50 }
  - { offset: 0x3BFD8, size: 0x8, addend: 0x0, symName: __ZNSt12_Vector_baseIxSaIxEED2Ev, symObjAddr: 0x12F8, symBinAddr: 0x1000019F0, symSize: 0x50 }
  - { offset: 0x3C034, size: 0x8, addend: 0x0, symName: __ZNSt12_Vector_baseIxSaIxEEC2EmRKS0_, symObjAddr: 0x12A4, symBinAddr: 0x10000199C, symSize: 0x54 }
  - { offset: 0x3C089, size: 0x8, addend: 0x0, symName: __ZNSt12_Vector_baseIxSaIxEE12_Vector_implD1Ev, symObjAddr: 0x1284, symBinAddr: 0x10000197C, symSize: 0x20 }
  - { offset: 0x3C0CE, size: 0x8, addend: 0x0, symName: __ZNSt6vectorIxSaIxEE17_S_check_init_lenEmRKS0_, symObjAddr: 0x1210, symBinAddr: 0x100001908, symSize: 0x74 }
  - { offset: 0x3C1E2, size: 0x8, addend: 0x0, symName: __ZNSt4pairISt23_Rb_tree_const_iteratorIxEbEC1IRSt17_Rb_tree_iteratorIxERbEEOT_OT0_, symObjAddr: 0x11C4, symBinAddr: 0x1000018BC, symSize: 0x4C }
  - { offset: 0x3C274, size: 0x8, addend: 0x0, symName: __ZNSt8_Rb_treeIxxSt9_IdentityIxESt4lessIxESaIxEE16_M_insert_uniqueIRKxEESt4pairISt17_Rb_tree_iteratorIxEbEOT_, symObjAddr: 0x1100, symBinAddr: 0x1000017F8, symSize: 0xC4 }
  - { offset: 0x3C350, size: 0x8, addend: 0x0, symName: __ZNSt12_Vector_baseISt3setIxSt4lessIxESaIxEESaIS4_EE19_M_get_Tp_allocatorEv, symObjAddr: 0x10EC, symBinAddr: 0x1000017E4, symSize: 0x14 }
  - { offset: 0x3C37A, size: 0x8, addend: 0x0, symName: __ZNSt6vectorISt3setIxSt4lessIxESaIxEESaIS4_EE21_M_default_initializeEm, symObjAddr: 0x109C, symBinAddr: 0x100001794, symSize: 0x50 }
  - { offset: 0x3C3CF, size: 0x8, addend: 0x0, symName: __ZNSt12_Vector_baseISt3setIxSt4lessIxESaIxEESaIS4_EED2Ev, symObjAddr: 0x1040, symBinAddr: 0x100001738, symSize: 0x5C }
  - { offset: 0x3C42B, size: 0x8, addend: 0x0, symName: __ZNSt12_Vector_baseISt3setIxSt4lessIxESaIxEESaIS4_EEC2EmRKS5_, symObjAddr: 0xFEC, symBinAddr: 0x1000016E4, symSize: 0x54 }
  - { offset: 0x3C480, size: 0x8, addend: 0x0, symName: __ZNSt12_Vector_baseISt3setIxSt4lessIxESaIxEESaIS4_EE12_Vector_implD1Ev, symObjAddr: 0xFCC, symBinAddr: 0x1000016C4, symSize: 0x20 }
  - { offset: 0x3C4C5, size: 0x8, addend: 0x0, symName: __ZNSt6vectorISt3setIxSt4lessIxESaIxEESaIS4_EE17_S_check_init_lenEmRKS5_, symObjAddr: 0xF58, symBinAddr: 0x100001650, symSize: 0x74 }
  - { offset: 0x3C5F0, size: 0x8, addend: 0x0, symName: __ZNSt4pairIxxEC1IxxEERS_IT_T0_E, symObjAddr: 0xF20, symBinAddr: 0x100001618, symSize: 0x38 }
  - { offset: 0x3C647, size: 0x8, addend: 0x0, symName: __ZNSt6vectorISt4pairIxxESaIS1_EE3endEv, symObjAddr: 0xEF0, symBinAddr: 0x1000015E8, symSize: 0x30 }
  - { offset: 0x3C69B, size: 0x8, addend: 0x0, symName: __ZNSt6vectorISt4pairIxxESaIS1_EE5beginEv, symObjAddr: 0xEC4, symBinAddr: 0x1000015BC, symSize: 0x2C }
  - { offset: 0x3C6EF, size: 0x8, addend: 0x0, symName: __ZNKSt6vectorISt4pairIxxESaIS1_EE4sizeEv, symObjAddr: 0xE84, symBinAddr: 0x10000157C, symSize: 0x40 }
  - { offset: 0x3C72D, size: 0x8, addend: 0x0, symName: __Z5solvev, symObjAddr: 0x318, symBinAddr: 0x100000A10, symSize: 0x4D4 }
  - { offset: 0x3C83B, size: 0x8, addend: 0x0, symName: __ZZ5solvevENKUlxE_clEx, symObjAddr: 0x1AC, symBinAddr: 0x1000008A4, symSize: 0xE8 }
  - { offset: 0x3C9FE, size: 0x8, addend: 0x0, symName: __ZZ5solvevENKUlOT_xxE_clIRS1_EEvS0_xx, symObjAddr: 0xD24, symBinAddr: 0x10000141C, symSize: 0x160 }
  - { offset: 0x3CE95, size: 0x8, addend: 0x0, symName: __ZNKSt23_Rb_tree_const_iteratorIxEdeEv, symObjAddr: 0xD04, symBinAddr: 0x1000013FC, symSize: 0x20 }
  - { offset: 0x3CEBF, size: 0x8, addend: 0x0, symName: __ZNSt23_Rb_tree_const_iteratorIxEppEv, symObjAddr: 0xCD4, symBinAddr: 0x1000013CC, symSize: 0x30 }
  - { offset: 0x3CEE5, size: 0x8, addend: 0x0, symName: __ZSteqRKSt23_Rb_tree_const_iteratorIxES2_, symObjAddr: 0xCA4, symBinAddr: 0x10000139C, symSize: 0x30 }
  - { offset: 0x3CF24, size: 0x8, addend: 0x0, symName: __ZNKSt3setIxSt4lessIxESaIxEE3endEv, symObjAddr: 0xC88, symBinAddr: 0x100001380, symSize: 0x1C }
  - { offset: 0x3CF4E, size: 0x8, addend: 0x0, symName: __ZNKSt3setIxSt4lessIxESaIxEE5beginEv, symObjAddr: 0xC6C, symBinAddr: 0x100001364, symSize: 0x1C }
  - { offset: 0x3CF78, size: 0x8, addend: 0x0, symName: __ZNKSt6vectorISt3setIxSt4lessIxESaIxEESaIS4_EE4sizeEv, symObjAddr: 0xC20, symBinAddr: 0x100001318, symSize: 0x4C }
  - { offset: 0x3CFCD, size: 0x8, addend: 0x0, symName: __ZNSt6vectorISt4pairIxxESaIS1_EED1Ev, symObjAddr: 0xBC4, symBinAddr: 0x1000012BC, symSize: 0x5C }
  - { offset: 0x3D043, size: 0x8, addend: 0x0, symName: __ZNSt12_Vector_baseISt4pairIxxESaIS1_EED2Ev, symObjAddr: 0xB74, symBinAddr: 0x10000126C, symSize: 0x50 }
  - { offset: 0x3D0C3, size: 0x8, addend: 0x0, symName: __ZNSt6vectorIxSaIxEEC1EmRKxRKS0_, symObjAddr: 0xB04, symBinAddr: 0x1000011FC, symSize: 0x70 }
  - { offset: 0x3D104, size: 0x8, addend: 0x0, symName: __ZNKSt3setIxSt4lessIxESaIxEE4sizeEv, symObjAddr: 0xAE8, symBinAddr: 0x1000011E0, symSize: 0x1C }
  - { offset: 0x3D12E, size: 0x8, addend: 0x0, symName: __ZNSt6vectorIxSaIxEEixEm, symObjAddr: 0xA64, symBinAddr: 0x10000115C, symSize: 0x84 }
  - { offset: 0x3D19E, size: 0x8, addend: 0x0, symName: __ZNSt6vectorIxSaIxEED1Ev, symObjAddr: 0xA08, symBinAddr: 0x100001100, symSize: 0x5C }
  - { offset: 0x3D230, size: 0x8, addend: 0x0, symName: __ZNSt6vectorIxSaIxEEC1EmRKS0_, symObjAddr: 0x9A0, symBinAddr: 0x100001098, symSize: 0x68 }
  - { offset: 0x3D294, size: 0x8, addend: 0x0, symName: __ZNSt3setIxSt4lessIxESaIxEE6insertERKx, symObjAddr: 0x960, symBinAddr: 0x100001058, symSize: 0x40 }
  - { offset: 0x3D2FA, size: 0x8, addend: 0x0, symName: __ZNSt6vectorISt3setIxSt4lessIxESaIxEESaIS4_EED1Ev, symObjAddr: 0x904, symBinAddr: 0x100000FFC, symSize: 0x5C }
  - { offset: 0x3D38C, size: 0x8, addend: 0x0, symName: __ZNSt6vectorISt3setIxSt4lessIxESaIxEESaIS4_EEC1EmRKS5_, symObjAddr: 0x89C, symBinAddr: 0x100000F94, symSize: 0x68 }
  - { offset: 0x3D3EC, size: 0x8, addend: 0x0, symName: __ZSt3maxImERKT_S2_S2_, symObjAddr: 0x864, symBinAddr: 0x100000F5C, symSize: 0x38 }
  - { offset: 0x3D437, size: 0x8, addend: 0x0, symName: _main, symObjAddr: 0x7EC, symBinAddr: 0x100000EE4, symSize: 0x78 }
  - { offset: 0x3D467, size: 0x8, addend: 0x0, symName: __ZNSt10__pair_getILm1EE10__move_getIxxEEOT0_OSt4pairIT_S2_E, symObjAddr: 0x2F8, symBinAddr: 0x1000009F0, symSize: 0x20 }
  - { offset: 0x3D4C7, size: 0x8, addend: 0x0, symName: __ZSt3getILm1ExxEONSt13tuple_elementIXT_ESt4pairIT0_T1_EE4typeEOS4_, symObjAddr: 0x2D4, symBinAddr: 0x1000009CC, symSize: 0x24 }
  - { offset: 0x3D556, size: 0x8, addend: 0x0, symName: __ZNSt10__pair_getILm0EE10__move_getIxxEEOT_OSt4pairIS2_T0_E, symObjAddr: 0x2B8, symBinAddr: 0x1000009B0, symSize: 0x1C }
  - { offset: 0x3D5DB, size: 0x8, addend: 0x0, symName: __ZSt3getILm0ExxEONSt13tuple_elementIXT_ESt4pairIT0_T1_EE4typeEOS4_, symObjAddr: 0x294, symBinAddr: 0x10000098C, symSize: 0x24 }
  - { offset: 0x3D6AB, size: 0x8, addend: 0x0, symName: __ZNSt6vectorISt3setIxSt4lessIxESaIxEESaIS4_EEixEm, symObjAddr: 0x11C, symBinAddr: 0x100000814, symSize: 0x90 }
  - { offset: 0x3D71E, size: 0x8, addend: 0x0, symName: __ZNSt12_Vector_baseISt4pairIxxESaIS1_EE12_Vector_implD1Ev, symObjAddr: 0xFC, symBinAddr: 0x1000007F4, symSize: 0x20 }
  - { offset: 0x3D767, size: 0x8, addend: 0x0, symName: __ZNSt15_Rb_tree_header8_M_resetEv, symObjAddr: 0xC0, symBinAddr: 0x1000007B8, symSize: 0x3C }
  - { offset: 0x3D7AB, size: 0x8, addend: 0x0, symName: __ZNSt15_Rb_tree_headerC2Ev, symObjAddr: 0x98, symBinAddr: 0x100000790, symSize: 0x28 }
  - { offset: 0x3D7D1, size: 0x8, addend: 0x0, symName: __ZNKSt18_Rb_tree_node_base11_M_base_ptrEv, symObjAddr: 0x84, symBinAddr: 0x10000077C, symSize: 0x14 }
  - { offset: 0x3D7F7, size: 0x8, addend: 0x0, symName: __ZSt3minImERKT_S2_S2_, symObjAddr: 0x4C, symBinAddr: 0x100000744, symSize: 0x38 }
  - { offset: 0x3D839, size: 0x8, addend: 0x0, symName: __ZSt17__size_to_integerm, symObjAddr: 0x38, symBinAddr: 0x100000730, symSize: 0x14 }
  - { offset: 0x3D86A, size: 0x8, addend: 0x0, symName: __ZdlPvS_, symObjAddr: 0x20, symBinAddr: 0x100000718, symSize: 0x18 }
  - { offset: 0x3D8A0, size: 0x8, addend: 0x0, symName: __ZnwmPv, symObjAddr: 0x8, symBinAddr: 0x100000700, symSize: 0x18 }
  - { offset: 0x3D8D2, size: 0x8, addend: 0x0, symName: __ZSt21is_constant_evaluatedv, symObjAddr: 0x0, symBinAddr: 0x1000006F8, symSize: 0x8 }
...
